target datalayout = "e-m:e-p270:32:32-p271:32:32-p272:64:64-i64:64-i128:128-f80:128-n8:16:32:64-S128"
target triple = "x86_64-pc-linux-gnu"

%struct.stb_vorbis = type { i32, i32, i32, i32, i32, ptr, i32, ptr, ptr, i32, i32, ptr, ptr, ptr, i32, i8, i32, %struct.ProbedPage, %struct.ProbedPage, %struct.stb_vorbis_alloc, i32, i32, i32, i32, [2 x i32], i32, i32, i32, ptr, i32, [64 x i16], ptr, i32, [64 x i16], ptr, i32, ptr, i32, [64 x %struct.Mode], i32, [16 x ptr], [16 x ptr], [16 x ptr], i32, [16 x ptr], i32, i32, [2 x ptr], [2 x ptr], [2 x ptr], [2 x ptr], [2 x ptr], i32, i32, i32, [255 x i8], i8, i8, i8, i32, i32, i32, i32, i32, i32, i32, i32, i32, i32, i32, [4 x %struct.CRCscan], i32, i32 }
%struct.ProbedPage = type { i32, i32, i32 }
%struct.stb_vorbis_alloc = type { ptr, i32 }
%struct.Mode = type { i8, i8, i16, i16 }
%struct.CRCscan = type { i32, i32, i32, i32, i32 }

; Function Attrs: nounwind uwtable
define i32 @error(ptr noundef %0, i32 noundef %1) #0 {
  %3 = alloca ptr, align 8
  %4 = alloca i32, align 4
  store ptr %0, ptr %3, align 8, !tbaa !3
  store i32 %1, ptr %4, align 4, !tbaa !8
  %5 = load i32, ptr %4, align 4, !tbaa !8
  %6 = load ptr, ptr %3, align 8, !tbaa !3
  %7 = getelementptr inbounds nuw %struct.stb_vorbis, ptr %6, i32 0, i32 23
  store i32 %5, ptr %7, align 4, !tbaa !10
  %8 = load ptr, ptr %3, align 8, !tbaa !3
  %9 = getelementptr inbounds nuw %struct.stb_vorbis, ptr %8, i32 0, i32 22
  %10 = load i32, ptr %9, align 8, !tbaa !17
  %11 = icmp ne i32 %10, 0
  br i1 %11, label %19, label %12

12:                                               ; preds = %2
  %13 = load i32, ptr %4, align 4, !tbaa !8
  %14 = icmp ne i32 %13, 1
  br i1 %14, label %15, label %19

15:                                               ; preds = %12
  %16 = load i32, ptr %4, align 4, !tbaa !8
  %17 = load ptr, ptr %3, align 8, !tbaa !3
  %18 = getelementptr inbounds nuw %struct.stb_vorbis, ptr %17, i32 0, i32 23
  store i32 %16, ptr %18, align 4, !tbaa !10
  br label %19

19:                                               ; preds = %15, %12, %2
  ret i32 0
}

; Function Attrs: nounwind uwtable
define i32 @start_page(ptr noundef %0) #0 {
  %2 = alloca i32, align 4
  %3 = alloca ptr, align 8
  store ptr %0, ptr %3, align 8, !tbaa !3
  %4 = load ptr, ptr %3, align 8, !tbaa !3
  %5 = call i32 @capture_pattern(ptr noundef %4)
  %6 = icmp ne i32 %5, 0
  br i1 %6, label %10, label %7

7:                                                ; preds = %1
  %8 = load ptr, ptr %3, align 8, !tbaa !3
  %9 = call i32 @error(ptr noundef %8, i32 noundef 30)
  store i32 %9, ptr %2, align 4
  br label %13

10:                                               ; preds = %1
  %11 = load ptr, ptr %3, align 8, !tbaa !3
  %12 = call i32 @start_page_no_capturepattern(ptr noundef %11)
  store i32 %12, ptr %2, align 4
  br label %13

13:                                               ; preds = %10, %7
  %14 = load i32, ptr %2, align 4
  ret i32 %14
}