; Function Attrs: nofree nounwind uwtable
define range(i32 0, 2) i32 @start_page(ptr noundef captures(none) %0) local_unnamed_addr #17 {
  %2 = tail call i32 @capture_pattern(ptr noundef %0)
  %.not = icmp eq i32 %2, 0
  br i1 %.not, label %3, label %5

3:                                                ; preds = %1
  %4 = getelementptr inbounds nuw i8, ptr %0, i64 156
  store i32 30, ptr %4, align 4
  br label %7

5:                                                ; preds = %1
  %6 = tail call i32 @start_page_no_capturepattern(ptr noundef %0)
  br label %7

7:                                                ; preds = %5, %3
  %.0 = phi i32 [ %6, %5 ], [ 0, %3 ]
  ret i32 %.0
}